target datalayout = "e-m:e-p270:32:32-p271:32:32-p272:64:64-i64:64-i128:128-f80:128-n8:16:32:64-S128"
target triple = "x86_64-pc-linux-gnu"

%struct.PageHeaderData = type { %struct.PageXLogRecPtr, i16, i16, i16, i16, i16, i16, i32, [0 x %struct.ItemIdData] }
%struct.PageXLogRecPtr = type { i32, i32 }
%struct.ItemIdData = type { i32 }
%struct.ItemPointerData = type { %struct.BlockIdData, i16 }
%struct.BlockIdData = type { i16, i16 }
%struct.HeapTupleHeaderData = type { %union.anon, %struct.ItemPointerData, i16, i16, i8, [0 x i8] }
%union.anon = type { %struct.HeapTupleFields }
%struct.HeapTupleFields = type { i32, i32, %union.anon.0 }
%union.anon.0 = type { i32 }

; Function Attrs: inlinehint nounwind uwtable
define internal i32 @HeapTupleHeaderGetRawXmin(ptr noundef %0) #2 {
  %2 = alloca ptr, align 8
  store ptr %0, ptr %2, align 8
  %3 = load ptr, ptr %2, align 8
  %4 = getelementptr inbounds nuw %struct.HeapTupleHeaderData, ptr %3, i32 0, i32 0
  %5 = getelementptr inbounds nuw %struct.HeapTupleFields, ptr %4, i32 0, i32 0
  %6 = load i32, ptr %5, align 4
  ret i32 %6
}

; Function Attrs: inlinehint nounwind uwtable
define internal zeroext i1 @HeapTupleHeaderXminFrozen(ptr noundef %0) #2 {
  %2 = alloca ptr, align 8
  store ptr %0, ptr %2, align 8
  %3 = load ptr, ptr %2, align 8
  %4 = getelementptr inbounds nuw %struct.HeapTupleHeaderData, ptr %3, i32 0, i32 3
  %5 = load i16, ptr %4, align 4
  %6 = zext i16 %5 to i32
  %7 = and i32 %6, 768
  %8 = icmp eq i32 %7, 768
  ret i1 %8
}

; Function Attrs: inlinehint nounwind uwtable
define internal i32 @HeapTupleHeaderGetRawXmax(ptr noundef %0) #2 {
  %2 = alloca ptr, align 8
  store ptr %0, ptr %2, align 8
  %3 = load ptr, ptr %2, align 8
  %4 = getelementptr inbounds nuw %struct.HeapTupleHeaderData, ptr %3, i32 0, i32 0
  %5 = getelementptr inbounds nuw %struct.HeapTupleFields, ptr %4, i32 0, i32 1
  %6 = load i32, ptr %5, align 4
  ret i32 %6
}

; Function Attrs: inlinehint nounwind uwtable
define internal zeroext i16 @ItemPointerGetOffsetNumberNoCheck(ptr noundef %0) #2 {
  %2 = alloca ptr, align 8
  store ptr %0, ptr %2, align 8
  %3 = load ptr, ptr %2, align 8
  %4 = getelementptr inbounds nuw %struct.ItemPointerData, ptr %3, i32 0, i32 1
  %5 = load i16, ptr %4, align 2
  ret i16 %5
}

; Function Attrs: inlinehint nounwind uwtable
define internal zeroext i1 @HeapTupleHeaderXminInvalid(ptr noundef %0) #2 {
  %2 = alloca ptr, align 8
  store ptr %0, ptr %2, align 8
  %3 = load ptr, ptr %2, align 8
  %4 = getelementptr inbounds nuw %struct.HeapTupleHeaderData, ptr %3, i32 0, i32 3
  %5 = load i16, ptr %4, align 4
  %6 = zext i16 %5 to i32
  %7 = and i32 %6, 768
  %8 = icmp eq i32 %7, 512
  ret i1 %8
}

; Function Attrs: inlinehint nounwind uwtable
define internal i32 @HeapTupleHeaderGetXmin(ptr noundef %0) #2 {
  %2 = alloca ptr, align 8
  store ptr %0, ptr %2, align 8
  %3 = load ptr, ptr %2, align 8
  %4 = call zeroext i1 @HeapTupleHeaderXminFrozen(ptr noundef %3)
  br i1 %4, label %5, label %6

5:                                                ; preds = %1
  br label %9

6:                                                ; preds = %1
  %7 = load ptr, ptr %2, align 8
  %8 = call i32 @HeapTupleHeaderGetRawXmin(ptr noundef %7)
  br label %9

9:                                                ; preds = %6, %5
  %10 = phi i32 [ 2, %5 ], [ %8, %6 ]
  ret i32 %10
}

; Function Attrs: inlinehint nounwind uwtable
define internal i32 @HeapTupleHeaderGetUpdateXid(ptr noundef %0) #2 {
  %2 = alloca i32, align 4
  %3 = alloca ptr, align 8
  store ptr %0, ptr %3, align 8
  %4 = load ptr, ptr %3, align 8
  %5 = getelementptr inbounds nuw %struct.HeapTupleHeaderData, ptr %4, i32 0, i32 3
  %6 = load i16, ptr %5, align 4
  %7 = zext i16 %6 to i32
  %8 = and i32 %7, 2048
  %9 = icmp ne i32 %8, 0
  br i1 %9, label %27, label %10

10:                                               ; preds = %1
  %11 = load ptr, ptr %3, align 8
  %12 = getelementptr inbounds nuw %struct.HeapTupleHeaderData, ptr %11, i32 0, i32 3
  %13 = load i16, ptr %12, align 4
  %14 = zext i16 %13 to i32
  %15 = and i32 %14, 4096
  %16 = icmp ne i32 %15, 0
  br i1 %16, label %17, label %27

17:                                               ; preds = %10
  %18 = load ptr, ptr %3, align 8
  %19 = getelementptr inbounds nuw %struct.HeapTupleHeaderData, ptr %18, i32 0, i32 3
  %20 = load i16, ptr %19, align 4
  %21 = zext i16 %20 to i32
  %22 = and i32 %21, 128
  %23 = icmp ne i32 %22, 0
  br i1 %23, label %27, label %24

24:                                               ; preds = %17
  %25 = load ptr, ptr %3, align 8
  %26 = call i32 @HeapTupleGetUpdateXid(ptr noundef %25)
  store i32 %26, ptr %2, align 4
  br label %30

27:                                               ; preds = %17, %10, %1
  %28 = load ptr, ptr %3, align 8
  %29 = call i32 @HeapTupleHeaderGetRawXmax(ptr noundef %28)
  store i32 %29, ptr %2, align 4
  br label %30

30:                                               ; preds = %27, %24
  %31 = load i32, ptr %2, align 4
  ret i32 %31
}

; Function Attrs: inlinehint nounwind uwtable
define internal zeroext i16 @ItemPointerGetOffsetNumber(ptr noundef %0) #2 {
  %2 = alloca ptr, align 8
  store ptr %0, ptr %2, align 8
  %3 = load ptr, ptr %2, align 8
  %4 = call zeroext i16 @ItemPointerGetOffsetNumberNoCheck(ptr noundef %3)
  ret i16 %4
}

; Function Attrs: inlinehint nounwind uwtable
define internal zeroext i1 @HeapTupleHeaderIsHotUpdated(ptr noundef %0) #2 {
  %2 = alloca ptr, align 8
  store ptr %0, ptr %2, align 8
  %3 = load ptr, ptr %2, align 8
  %4 = getelementptr inbounds nuw %struct.HeapTupleHeaderData, ptr %3, i32 0, i32 2
  %5 = load i16, ptr %4, align 2
  %6 = zext i16 %5 to i32
  %7 = and i32 %6, 16384
  %8 = icmp ne i32 %7, 0
  br i1 %8, label %9, label %20

9:                                                ; preds = %1
  %10 = load ptr, ptr %2, align 8
  %11 = getelementptr inbounds nuw %struct.HeapTupleHeaderData, ptr %10, i32 0, i32 3
  %12 = load i16, ptr %11, align 4
  %13 = zext i16 %12 to i32
  %14 = and i32 %13, 2048
  %15 = icmp eq i32 %14, 0
  br i1 %15, label %16, label %20

16:                                               ; preds = %9
  %17 = load ptr, ptr %2, align 8
  %18 = call zeroext i1 @HeapTupleHeaderXminInvalid(ptr noundef %17)
  %19 = xor i1 %18, true
  br label %20

20:                                               ; preds = %16, %9, %1
  %21 = phi i1 [ false, %9 ], [ false, %1 ], [ %19, %16 ]
  ret i1 %21
}

; Function Attrs: inlinehint nounwind uwtable
define internal zeroext i1 @HeapTupleHeaderIsHeapOnly(ptr noundef %0) #2 {
  %2 = alloca ptr, align 8
  store ptr %0, ptr %2, align 8
  %3 = load ptr, ptr %2, align 8
  %4 = getelementptr inbounds nuw %struct.HeapTupleHeaderData, ptr %3, i32 0, i32 2
  %5 = load i16, ptr %4, align 2
  %6 = zext i16 %5 to i32
  %7 = and i32 %6, 32768
  %8 = icmp ne i32 %7, 0
  ret i1 %8
}

; Function Attrs: inlinehint nounwind uwtable
define internal ptr @PageGetItem(ptr noundef %0, ptr noundef %1) #2 {
  %3 = alloca ptr, align 8
  %4 = alloca ptr, align 8
  store ptr %0, ptr %3, align 8
  store ptr %1, ptr %4, align 8
  %5 = load ptr, ptr %3, align 8
  %6 = load ptr, ptr %4, align 8
  %7 = load i32, ptr %6, align 4
  %8 = and i32 %7, 32767
  %9 = sext i32 %8 to i64
  %10 = getelementptr inbounds i8, ptr %5, i64 %9
  ret ptr %10
}

; Function Attrs: inlinehint nounwind uwtable
define internal ptr @PageGetItemId(ptr noundef %0, i16 noundef zeroext %1) #2 {
  %3 = alloca ptr, align 8
  %4 = alloca i16, align 2
  store ptr %0, ptr %3, align 8
  store i16 %1, ptr %4, align 2
  %5 = load ptr, ptr %3, align 8
  %6 = getelementptr inbounds nuw %struct.PageHeaderData, ptr %5, i32 0, i32 8
  %7 = load i16, ptr %4, align 2
  %8 = zext i16 %7 to i32
  %9 = sub i32 %8, 1
  %10 = sext i32 %9 to i64
  %11 = getelementptr inbounds [0 x %struct.ItemIdData], ptr %6, i64 0, i64 %10
  ret ptr %11
}

; Function Attrs: inlinehint nounwind uwtable
define internal zeroext i16 @PageGetMaxOffsetNumber(ptr noundef %0) #2 {
  %2 = alloca i16, align 2
  %3 = alloca ptr, align 8
  %4 = alloca ptr, align 8
  %5 = alloca i32, align 4
  store ptr %0, ptr %3, align 8
  call void @llvm.lifetime.start.p0(i64 8, ptr %4) #7
  %6 = load ptr, ptr %3, align 8
  store ptr %6, ptr %4, align 8
  %7 = load ptr, ptr %4, align 8
  %8 = getelementptr inbounds nuw %struct.PageHeaderData, ptr %7, i32 0, i32 3
  %9 = load i16, ptr %8, align 4
  %10 = zext i16 %9 to i64
  %11 = icmp ule i64 %10, 24
  br i1 %11, label %12, label %13

12:                                               ; preds = %1
  store i16 0, ptr %2, align 2
  store i32 1, ptr %5, align 4
  br label %21

13:                                               ; preds = %1
  %14 = load ptr, ptr %4, align 8
  %15 = getelementptr inbounds nuw %struct.PageHeaderData, ptr %14, i32 0, i32 3
  %16 = load i16, ptr %15, align 4
  %17 = zext i16 %16 to i64
  %18 = sub i64 %17, 24
  %19 = udiv i64 %18, 4
  %20 = trunc i64 %19 to i16
  store i16 %20, ptr %2, align 2
  store i32 1, ptr %5, align 4
  br label %21

21:                                               ; preds = %13, %12
  call void @llvm.lifetime.end.p0(i64 8, ptr %4) #7
  %22 = load i16, ptr %2, align 2
  ret i16 %22
}

; Function Attrs: nounwind uwtable
define dso_local void @heap_get_root_tuples(ptr noundef %0, ptr noundef %1) #0 {
  %3 = alloca ptr, align 8
  %4 = alloca ptr, align 8
  %5 = alloca i16, align 2
  %6 = alloca i16, align 2
  %7 = alloca ptr, align 8
  %8 = alloca i32, align 4
  %9 = alloca i64, align 8
  %10 = alloca ptr, align 8
  %11 = alloca ptr, align 8
  %12 = alloca ptr, align 8
  %13 = alloca ptr, align 8
  %14 = alloca i16, align 2
  %15 = alloca i32, align 4
  %16 = alloca i32, align 4
  store ptr %0, ptr %3, align 8
  store ptr %1, ptr %4, align 8
  call void @llvm.lifetime.start.p0(i64 2, ptr %5) #7
  call void @llvm.lifetime.start.p0(i64 2, ptr %6) #7
  br label %17

17:                                               ; preds = %2
  call void @llvm.lifetime.start.p0(i64 8, ptr %7) #7
  %18 = load ptr, ptr %4, align 8
  store ptr %18, ptr %7, align 8
  call void @llvm.lifetime.start.p0(i64 4, ptr %8) #7
  store i32 0, ptr %8, align 4
  call void @llvm.lifetime.start.p0(i64 8, ptr %9) #7
  store i64 582, ptr %9, align 8
  %19 = load ptr, ptr %7, align 8
  %20 = ptrtoint ptr %19 to i64
  %21 = and i64 %20, 7
  %22 = icmp eq i64 %21, 0
  br i1 %22, label %23, label %46

23:                                               ; preds = %17
  %24 = load i64, ptr %9, align 8
  %25 = and i64 %24, 7
  %26 = icmp eq i64 %25, 0
  br i1 %26, label %27, label %46

27:                                               ; preds = %23
  %28 = load i32, ptr %8, align 4
  %29 = icmp eq i32 %28, 0
  br i1 %29, label %30, label %46

30:                                               ; preds = %27
  %31 = load i64, ptr %9, align 8
  %32 = icmp ule i64 %31, 1024
  br i1 %32, label %33, label %46

33:                                               ; preds = %30
  call void @llvm.lifetime.start.p0(i64 8, ptr %10) #7
  %34 = load ptr, ptr %7, align 8
  store ptr %34, ptr %10, align 8
  call void @llvm.lifetime.start.p0(i64 8, ptr %11) #7
  %35 = load ptr, ptr %10, align 8
  %36 = load i64, ptr %9, align 8
  %37 = getelementptr inbounds nuw i8, ptr %35, i64 %36
  store ptr %37, ptr %11, align 8
  br label %38

38:                                               ; preds = %42, %33
  %39 = load ptr, ptr %10, align 8
  %40 = load ptr, ptr %11, align 8
  %41 = icmp ult ptr %39, %40
  br i1 %41, label %42, label %45

42:                                               ; preds = %38
  %43 = load ptr, ptr %10, align 8
  %44 = getelementptr inbounds nuw i64, ptr %43, i32 1
  store ptr %44, ptr %10, align 8
  store i64 0, ptr %43, align 8
  br label %38, !llvm.loop !18

45:                                               ; preds = %38
  call void @llvm.lifetime.end.p0(i64 8, ptr %11) #7
  call void @llvm.lifetime.end.p0(i64 8, ptr %10) #7
  br label %51

46:                                               ; preds = %30, %27, %23, %17
  %47 = load ptr, ptr %7, align 8
  %48 = load i32, ptr %8, align 4
  %49 = trunc i32 %48 to i8
  %50 = load i64, ptr %9, align 8
  call void @llvm.memset.p0.i64(ptr align 1 %47, i8 %49, i64 %50, i1 false)
  br label %51

51:                                               ; preds = %46, %45
  call void @llvm.lifetime.end.p0(i64 8, ptr %9) #7
  call void @llvm.lifetime.end.p0(i64 4, ptr %8) #7
  call void @llvm.lifetime.end.p0(i64 8, ptr %7) #7
  br label %52

52:                                               ; preds = %51
  br label %53

53:                                               ; preds = %52
  %54 = load ptr, ptr %3, align 8
  %55 = call zeroext i16 @PageGetMaxOffsetNumber(ptr noundef %54)
  store i16 %55, ptr %6, align 2
  store i16 1, ptr %5, align 2
  br label %56

56:                                               ; preds = %169, %53
  %57 = load i16, ptr %5, align 2
  %58 = zext i16 %57 to i32
  %59 = load i16, ptr %6, align 2
  %60 = zext i16 %59 to i32
  %61 = icmp sle i32 %58, %60
  br i1 %61, label %62, label %174

62:                                               ; preds = %56
  call void @llvm.lifetime.start.p0(i64 8, ptr %12) #7
  %63 = load ptr, ptr %3, align 8
  %64 = load i16, ptr %5, align 2
  %65 = call ptr @PageGetItemId(ptr noundef %63, i16 noundef zeroext %64)
  store ptr %65, ptr %12, align 8
  call void @llvm.lifetime.start.p0(i64 8, ptr %13) #7
  call void @llvm.lifetime.start.p0(i64 2, ptr %14) #7
  call void @llvm.lifetime.start.p0(i64 4, ptr %15) #7
  %66 = load ptr, ptr %12, align 8
  %67 = load i32, ptr %66, align 4
  %68 = lshr i32 %67, 15
  %69 = and i32 %68, 3
  %70 = icmp ne i32 %69, 0
  br i1 %70, label %71, label %77

71:                                               ; preds = %62
  %72 = load ptr, ptr %12, align 8
  %73 = load i32, ptr %72, align 4
  %74 = lshr i32 %73, 15
  %75 = and i32 %74, 3
  %76 = icmp eq i32 %75, 3
  br i1 %76, label %77, label %78

77:                                               ; preds = %71, %62
  store i32 8, ptr %16, align 4
  br label %166

78:                                               ; preds = %71
  %79 = load ptr, ptr %12, align 8
  %80 = load i32, ptr %79, align 4
  %81 = lshr i32 %80, 15
  %82 = and i32 %81, 3
  %83 = icmp eq i32 %82, 1
  br i1 %83, label %84, label %108

84:                                               ; preds = %78
  %85 = load ptr, ptr %3, align 8
  %86 = load ptr, ptr %12, align 8
  %87 = call ptr @PageGetItem(ptr noundef %85, ptr noundef %86)
  store ptr %87, ptr %13, align 8
  %88 = load ptr, ptr %13, align 8
  %89 = call zeroext i1 @HeapTupleHeaderIsHeapOnly(ptr noundef %88)
  br i1 %89, label %90, label %91

90:                                               ; preds = %84
  store i32 8, ptr %16, align 4
  br label %166

91:                                               ; preds = %84
  %92 = load i16, ptr %5, align 2
  %93 = load ptr, ptr %4, align 8
  %94 = load i16, ptr %5, align 2
  %95 = zext i16 %94 to i32
  %96 = sub i32 %95, 1
  %97 = sext i32 %96 to i64
  %98 = getelementptr inbounds i16, ptr %93, i64 %97
  store i16 %92, ptr %98, align 2
  %99 = load ptr, ptr %13, align 8
  %100 = call zeroext i1 @HeapTupleHeaderIsHotUpdated(ptr noundef %99)
  br i1 %100, label %102, label %101

101:                                              ; preds = %91
  store i32 8, ptr %16, align 4
  br label %166

102:                                              ; preds = %91
  %103 = load ptr, ptr %13, align 8
  %104 = getelementptr inbounds nuw %struct.HeapTupleHeaderData, ptr %103, i32 0, i32 1
  %105 = call zeroext i16 @ItemPointerGetOffsetNumber(ptr noundef %104)
  store i16 %105, ptr %14, align 2
  %106 = load ptr, ptr %13, align 8
  %107 = call i32 @HeapTupleHeaderGetUpdateXid(ptr noundef %106)
  store i32 %107, ptr %15, align 4
  br label %113

108:                                              ; preds = %78
  %109 = load ptr, ptr %12, align 8
  %110 = load i32, ptr %109, align 4
  %111 = and i32 %110, 32767
  %112 = trunc i32 %111 to i16
  store i16 %112, ptr %14, align 2
  store i32 0, ptr %15, align 4
  br label %113

113:                                              ; preds = %108, %102
  br label %114

114:                                              ; preds = %159, %113
  %115 = load i16, ptr %5, align 2
  %116 = zext i16 %115 to i32
  %117 = icmp slt i32 %116, 1
  br i1 %117, label %118, label %119

118:                                              ; preds = %114
  br label %165

119:                                              ; preds = %114
  %120 = load i16, ptr %5, align 2
  %121 = zext i16 %120 to i32
  %122 = load i16, ptr %6, align 2
  %123 = zext i16 %122 to i32
  %124 = icmp sgt i32 %121, %123
  br i1 %124, label %125, label %126

125:                                              ; preds = %119
  br label %165

126:                                              ; preds = %119
  %127 = load ptr, ptr %3, align 8
  %128 = load i16, ptr %14, align 2
  %129 = call ptr @PageGetItemId(ptr noundef %127, i16 noundef zeroext %128)
  store ptr %129, ptr %12, align 8
  %130 = load ptr, ptr %12, align 8
  %131 = load i32, ptr %130, align 4
  %132 = lshr i32 %131, 15
  %133 = and i32 %132, 3
  %134 = icmp eq i32 %133, 1
  br i1 %134, label %136, label %135

135:                                              ; preds = %126
  br label %165

136:                                              ; preds = %126
  %137 = load ptr, ptr %3, align 8
  %138 = load ptr, ptr %12, align 8
  %139 = call ptr @PageGetItem(ptr noundef %137, ptr noundef %138)
  store ptr %139, ptr %13, align 8
  %140 = load i32, ptr %15, align 4
  %141 = icmp ne i32 %140, 0
  br i1 %141, label %142, label %148

142:                                              ; preds = %136
  %143 = load i32, ptr %15, align 4
  %144 = load ptr, ptr %13, align 8
  %145 = call i32 @HeapTupleHeaderGetXmin(ptr noundef %144)
  %146 = icmp eq i32 %143, %145
  br i1 %146, label %148, label %147

147:                                              ; preds = %142
  br label %165

148:                                              ; preds = %142, %136
  %149 = load i16, ptr %5, align 2
  %150 = load ptr, ptr %4, align 8
  %151 = load i16, ptr %14, align 2
  %152 = zext i16 %151 to i32
  %153 = sub i32 %152, 1
  %154 = sext i32 %153 to i64
  %155 = getelementptr inbounds i16, ptr %150, i64 %154
  store i16 %149, ptr %155, align 2
  %156 = load ptr, ptr %13, align 8
  %157 = call zeroext i1 @HeapTupleHeaderIsHotUpdated(ptr noundef %156)
  br i1 %157, label %159, label %158

158:                                              ; preds = %148
  br label %165

159:                                              ; preds = %148
  %160 = load ptr, ptr %13, align 8
  %161 = getelementptr inbounds nuw %struct.HeapTupleHeaderData, ptr %160, i32 0, i32 1
  %162 = call zeroext i16 @ItemPointerGetOffsetNumber(ptr noundef %161)
  store i16 %162, ptr %14, align 2
  %163 = load ptr, ptr %13, align 8
  %164 = call i32 @HeapTupleHeaderGetUpdateXid(ptr noundef %163)
  store i32 %164, ptr %15, align 4
  br label %114

165:                                              ; preds = %158, %147, %135, %125, %118
  store i32 0, ptr %16, align 4
  br label %166

166:                                              ; preds = %165, %101, %90, %77
  call void @llvm.lifetime.end.p0(i64 4, ptr %15) #7
  call void @llvm.lifetime.end.p0(i64 2, ptr %14) #7
  call void @llvm.lifetime.end.p0(i64 8, ptr %13) #7
  call void @llvm.lifetime.end.p0(i64 8, ptr %12) #7
  %167 = load i32, ptr %16, align 4
  switch i32 %167, label %175 [
    i32 0, label %168
    i32 8, label %169
  ]

168:                                              ; preds = %166
  br label %169

169:                                              ; preds = %168, %166
  %170 = load i16, ptr %5, align 2
  %171 = zext i16 %170 to i32
  %172 = add i32 1, %171
  %173 = trunc i32 %172 to i16
  store i16 %173, ptr %5, align 2
  br label %56, !llvm.loop !19

174:                                              ; preds = %56
  call void @llvm.lifetime.end.p0(i64 2, ptr %6) #7
  call void @llvm.lifetime.end.p0(i64 2, ptr %5) #7
  ret void

175:                                              ; preds = %166
  unreachable
}