; Function Attrs: nounwind uwtable
define dso_local void @heap_get_root_tuples(ptr noundef %0, ptr noundef writeonly captures(none) initializes((0, 582)) %1) local_unnamed_addr #0 {
  tail call void @llvm.memset.p0.i64(ptr noundef nonnull align 1 dereferenceable(582) %1, i8 0, i64 582, i1 false)
  %3 = getelementptr i8, ptr %0, i64 12
  %.val = load i16, ptr %3, align 4
  %4 = icmp ult i16 %.val, 25
  %5 = zext i16 %.val to i32
  %6 = add nuw nsw i32 %5, 262120
  %7 = lshr i32 %6, 2
  %8 = trunc i32 %7 to i16
  %invariant.gep80 = getelementptr i8, ptr %1, i64 -2
  %.not8285 = icmp eq i16 %8, 0
  %.not82 = select i1 %4, i1 true, i1 %.not8285
  br i1 %.not82, label %._crit_edge, label %.lr.ph84

.lr.ph84:                                         ; preds = %2
  %9 = getelementptr inbounds nuw i8, ptr %0, i64 24
  br label %10

10:                                               ; preds = %.lr.ph84, %HeapTupleHeaderIsHotUpdated.exit.thread
  %.05483 = phi i16 [ 1, %.lr.ph84 ], [ %85, %HeapTupleHeaderIsHotUpdated.exit.thread ]
  %11 = zext i16 %.05483 to i64
  %12 = add nsw i64 %11, -1
  %13 = getelementptr inbounds [0 x %struct.ItemIdData], ptr %9, i64 0, i64 %12
  %14 = load i32, ptr %13, align 4
  %15 = lshr i32 %14, 15
  %16 = and i32 %15, 3
  switch i32 %16, label %default.unreachable [
    i32 0, label %HeapTupleHeaderIsHotUpdated.exit.thread
    i32 3, label %HeapTupleHeaderIsHotUpdated.exit.thread
    i32 1, label %17
    i32 2, label %40
  ]

17:                                               ; preds = %10
  %18 = and i32 %14, 32767
  %19 = zext nneg i32 %18 to i64
  %20 = getelementptr inbounds nuw i8, ptr %0, i64 %19
  %21 = getelementptr i8, ptr %20, i64 18
  %.val63 = load i16, ptr %21, align 2
  %22 = icmp slt i16 %.val63, 0
  br i1 %22, label %HeapTupleHeaderIsHotUpdated.exit.thread, label %23

23:                                               ; preds = %17
  %gep81 = getelementptr i16, ptr %invariant.gep80, i64 %11
  store i16 %.05483, ptr %gep81, align 2
  %24 = load i16, ptr %21, align 2
  %25 = and i16 %24, 16384
  %.not.i = icmp eq i16 %25, 0
  br i1 %.not.i, label %HeapTupleHeaderIsHotUpdated.exit.thread, label %26

26:                                               ; preds = %23
  %27 = getelementptr inbounds nuw i8, ptr %20, i64 20
  %28 = load i16, ptr %27, align 4
  %29 = and i16 %28, 2048
  %30 = icmp eq i16 %29, 0
  %31 = and i16 %28, 768
  %32 = icmp ne i16 %31, 512
  %or.cond = and i1 %30, %32
  br i1 %or.cond, label %33, label %HeapTupleHeaderIsHotUpdated.exit.thread

33:                                               ; preds = %26
  %34 = getelementptr i8, ptr %20, i64 16
  %.val64 = load i16, ptr %34, align 2
  %35 = and i16 %28, 4224
  %or.cond7.i = icmp eq i16 %35, 4096
  br i1 %or.cond7.i, label %36, label %38

36:                                               ; preds = %33
  %37 = tail call i32 @HeapTupleGetUpdateXid(ptr noundef nonnull %20) #8
  br label %HeapTupleHeaderGetUpdateXid.exit

38:                                               ; preds = %33
  %39 = getelementptr i8, ptr %20, i64 4
  %.val.i = load i32, ptr %39, align 4
  br label %HeapTupleHeaderGetUpdateXid.exit

default.unreachable:                              ; preds = %10
  unreachable

40:                                               ; preds = %10
  %41 = trunc i32 %14 to i16
  %42 = and i16 %41, 32767
  br label %HeapTupleHeaderGetUpdateXid.exit

HeapTupleHeaderGetUpdateXid.exit:                 ; preds = %38, %36, %40
  %.052 = phi i16 [ %42, %40 ], [ %.val64, %36 ], [ %.val64, %38 ]
  %.0 = phi i32 [ 0, %40 ], [ %37, %36 ], [ %.val.i, %38 ]
  %43 = zext i16 %.052 to i64
  %44 = add nsw i64 %43, -1
  %45 = getelementptr inbounds [0 x %struct.ItemIdData], ptr %9, i64 0, i64 %44
  %46 = load i32, ptr %45, align 4
  %47 = and i32 %46, 98304
  %48 = icmp eq i32 %47, 32768
  br i1 %48, label %.lr.ph, label %HeapTupleHeaderIsHotUpdated.exit.thread

.lr.ph:                                           ; preds = %HeapTupleHeaderGetUpdateXid.exit, %HeapTupleHeaderGetUpdateXid.exit73
  %49 = phi i32 [ %82, %HeapTupleHeaderGetUpdateXid.exit73 ], [ %46, %HeapTupleHeaderGetUpdateXid.exit ]
  %50 = phi i64 [ %79, %HeapTupleHeaderGetUpdateXid.exit73 ], [ %43, %HeapTupleHeaderGetUpdateXid.exit ]
  %.177 = phi i32 [ %.0.i72, %HeapTupleHeaderGetUpdateXid.exit73 ], [ %.0, %HeapTupleHeaderGetUpdateXid.exit ]
  %51 = and i32 %49, 32767
  %52 = zext nneg i32 %51 to i64
  %53 = getelementptr inbounds nuw i8, ptr %0, i64 %52
  %.not60 = icmp eq i32 %.177, 0
  br i1 %.not60, label %61, label %54

54:                                               ; preds = %.lr.ph
  %55 = getelementptr i8, ptr %53, i64 20
  %.val.i67 = load i16, ptr %55, align 4
  %56 = and i16 %.val.i67, 768
  %57 = icmp eq i16 %56, 768
  br i1 %57, label %HeapTupleHeaderGetXmin.exit, label %58

58:                                               ; preds = %54
  %.val2.i = load i32, ptr %53, align 4
  br label %HeapTupleHeaderGetXmin.exit

HeapTupleHeaderGetXmin.exit:                      ; preds = %54, %58
  %59 = phi i32 [ %.val2.i, %58 ], [ 2, %54 ]
  %60 = icmp eq i32 %.177, %59
  br i1 %60, label %61, label %HeapTupleHeaderIsHotUpdated.exit.thread

61:                                               ; preds = %HeapTupleHeaderGetXmin.exit, %.lr.ph
  %gep = getelementptr i16, ptr %invariant.gep80, i64 %50
  store i16 %.05483, ptr %gep, align 2
  %62 = getelementptr inbounds nuw i8, ptr %53, i64 18
  %63 = load i16, ptr %62, align 2
  %64 = and i16 %63, 16384
  %.not.i68 = icmp eq i16 %64, 0
  br i1 %.not.i68, label %HeapTupleHeaderIsHotUpdated.exit.thread, label %65

65:                                               ; preds = %61
  %66 = getelementptr inbounds nuw i8, ptr %53, i64 20
  %67 = load i16, ptr %66, align 4
  %68 = and i16 %67, 2048
  %69 = icmp eq i16 %68, 0
  %70 = and i16 %67, 768
  %71 = icmp ne i16 %70, 512
  %or.cond76 = and i1 %69, %71
  br i1 %or.cond76, label %72, label %HeapTupleHeaderIsHotUpdated.exit.thread

72:                                               ; preds = %65
  %73 = getelementptr i8, ptr %53, i64 16
  %.val65 = load i16, ptr %73, align 2
  %74 = and i16 %67, 4224
  %or.cond7.i70 = icmp eq i16 %74, 4096
  br i1 %or.cond7.i70, label %75, label %77

75:                                               ; preds = %72
  %76 = tail call i32 @HeapTupleGetUpdateXid(ptr noundef nonnull %53) #8
  br label %HeapTupleHeaderGetUpdateXid.exit73

77:                                               ; preds = %72
  %78 = getelementptr i8, ptr %53, i64 4
  %.val.i71 = load i32, ptr %78, align 4
  br label %HeapTupleHeaderGetUpdateXid.exit73

HeapTupleHeaderGetUpdateXid.exit73:               ; preds = %75, %77
  %.0.i72 = phi i32 [ %.val.i71, %77 ], [ %76, %75 ]
  %79 = zext i16 %.val65 to i64
  %80 = add nsw i64 %79, -1
  %81 = getelementptr inbounds [0 x %struct.ItemIdData], ptr %9, i64 0, i64 %80
  %82 = load i32, ptr %81, align 4
  %83 = and i32 %82, 98304
  %84 = icmp eq i32 %83, 32768
  br i1 %84, label %.lr.ph, label %HeapTupleHeaderIsHotUpdated.exit.thread

HeapTupleHeaderIsHotUpdated.exit.thread:          ; preds = %HeapTupleHeaderGetXmin.exit, %HeapTupleHeaderGetUpdateXid.exit73, %65, %61, %HeapTupleHeaderGetUpdateXid.exit, %23, %26, %10, %10, %17
  %85 = add i16 %.05483, 1
  %.not = icmp ugt i16 %85, %8
  br i1 %.not, label %._crit_edge, label %10, !llvm.loop !21

._crit_edge:                                      ; preds = %HeapTupleHeaderIsHotUpdated.exit.thread, %2
  ret void
}